(lp1
(lp2
(lp3
S'gCa_HVAbar_Ca_HVA'
p4
aa(lp5
S'gCa_LVAstbar_Ca_LVAst'
p6
aa(lp7
S'gamma_CaDynamics_E2'
p8
aS'decay_CaDynamics_E2'
p9
aS'depth_CaDynamics_E2'
p10
aS'minCai_CaDynamics_E2'
p11
aa(lp12
S'gIhbar_Ih'
p13
aS'ehcn_Ih'
p14
aa(lp15
S'gImbar_Im'
p16
aa(lp17
S'gK_Pstbar_K_Pst'
p18
aa(lp19
S'gK_Tstbar_K_Tst'
p20
aa(lp21
S'gNap_Et2bar_Nap_Et2'
p22
aa(lp23
S'gNaTa_tbar_NaTa_t'
p24
aa(lp25
S'gNaTs2_tbar_NaTs2_t'
p26
aa(lp27
S'g_pas'
p28
aS'e_pas'
p29
aa(lp30
S'gSK_E2bar_SK_E2'
p31
aS'zTau_SK_E2'
p32
aa(lp33
S'gSKv3_1bar_SKv3_1'
p34
aaaS'./runModel.hoc'
p35
aS'./'
p36
ac__builtin__
set
p37
((lp38
S'pas'
p39
aS'NaTs2_t'
p40
aS'SKv3_1'
p41
aS'NaTa_t'
p42
aS'SK_E2'
p43
aS'Ca_LVAst'
p44
aS'Nap_Et2'
p45
aS'Ih'
p46
aS'Im'
p47
aS'K_Pst'
p48
aS'Ca_HVA'
p49
aS'K_Tst'
p50
aS'CaDynamics_E2'
p51
atRp52
a(lp53
g37
((lp54
S'eca'
p55
atRp56
ag37
((lp57
S'eca'
p58
atRp59
ag37
((lp60
S'eca'
p61
atRp62
ag37
((ltRp63
ag37
((lp64
S'ek'
p65
atRp66
ag37
((lp67
S'ek'
p68
atRp69
ag37
((lp70
S'ek'
p71
atRp72
ag37
((lp73
S'ena'
p74
atRp75
ag37
((lp76
S'ena'
p77
atRp78
ag37
((lp79
S'ena'
p80
atRp81
ag37
((ltRp82
ag37
((lp83
S'ek'
p84
atRp85
ag37
((lp86
S'eca'
p87
aS'ek'
p88
atRp89
aag53
a(lp90
S'cADpyr232_L5_TTPC1_0fb1ca4724[0].soma[0]'
p91
aS'cADpyr232_L5_TTPC1_0fb1ca4724[0].dend[0]'
p92
aS'cADpyr232_L5_TTPC1_0fb1ca4724[0].dend[1]'
p93
aS'cADpyr232_L5_TTPC1_0fb1ca4724[0].dend[2]'
p94
aS'cADpyr232_L5_TTPC1_0fb1ca4724[0].dend[3]'
p95
aS'cADpyr232_L5_TTPC1_0fb1ca4724[0].dend[4]'
p96
aS'cADpyr232_L5_TTPC1_0fb1ca4724[0].dend[5]'
p97
aS'cADpyr232_L5_TTPC1_0fb1ca4724[0].dend[6]'
p98
aS'cADpyr232_L5_TTPC1_0fb1ca4724[0].dend[7]'
p99
aS'cADpyr232_L5_TTPC1_0fb1ca4724[0].dend[8]'
p100
aS'cADpyr232_L5_TTPC1_0fb1ca4724[0].dend[9]'
p101
aS'cADpyr232_L5_TTPC1_0fb1ca4724[0].dend[10]'
p102
aS'cADpyr232_L5_TTPC1_0fb1ca4724[0].dend[11]'
p103
aS'cADpyr232_L5_TTPC1_0fb1ca4724[0].dend[12]'
p104
aS'cADpyr232_L5_TTPC1_0fb1ca4724[0].dend[13]'
p105
aS'cADpyr232_L5_TTPC1_0fb1ca4724[0].dend[14]'
p106
aS'cADpyr232_L5_TTPC1_0fb1ca4724[0].dend[15]'
p107
aS'cADpyr232_L5_TTPC1_0fb1ca4724[0].dend[16]'
p108
aS'cADpyr232_L5_TTPC1_0fb1ca4724[0].dend[17]'
p109
aS'cADpyr232_L5_TTPC1_0fb1ca4724[0].dend[18]'
p110
aS'cADpyr232_L5_TTPC1_0fb1ca4724[0].dend[19]'
p111
aS'cADpyr232_L5_TTPC1_0fb1ca4724[0].dend[20]'
p112
aS'cADpyr232_L5_TTPC1_0fb1ca4724[0].dend[21]'
p113
aS'cADpyr232_L5_TTPC1_0fb1ca4724[0].dend[22]'
p114
aS'cADpyr232_L5_TTPC1_0fb1ca4724[0].dend[23]'
p115
aS'cADpyr232_L5_TTPC1_0fb1ca4724[0].dend[24]'
p116
aS'cADpyr232_L5_TTPC1_0fb1ca4724[0].dend[25]'
p117
aS'cADpyr232_L5_TTPC1_0fb1ca4724[0].dend[26]'
p118
aS'cADpyr232_L5_TTPC1_0fb1ca4724[0].dend[27]'
p119
aS'cADpyr232_L5_TTPC1_0fb1ca4724[0].dend[28]'
p120
aS'cADpyr232_L5_TTPC1_0fb1ca4724[0].dend[29]'
p121
aS'cADpyr232_L5_TTPC1_0fb1ca4724[0].dend[30]'
p122
aS'cADpyr232_L5_TTPC1_0fb1ca4724[0].dend[31]'
p123
aS'cADpyr232_L5_TTPC1_0fb1ca4724[0].dend[32]'
p124
aS'cADpyr232_L5_TTPC1_0fb1ca4724[0].dend[33]'
p125
aS'cADpyr232_L5_TTPC1_0fb1ca4724[0].dend[34]'
p126
aS'cADpyr232_L5_TTPC1_0fb1ca4724[0].dend[35]'
p127
aS'cADpyr232_L5_TTPC1_0fb1ca4724[0].dend[36]'
p128
aS'cADpyr232_L5_TTPC1_0fb1ca4724[0].dend[37]'
p129
aS'cADpyr232_L5_TTPC1_0fb1ca4724[0].dend[38]'
p130
aS'cADpyr232_L5_TTPC1_0fb1ca4724[0].dend[39]'
p131
aS'cADpyr232_L5_TTPC1_0fb1ca4724[0].dend[40]'
p132
aS'cADpyr232_L5_TTPC1_0fb1ca4724[0].dend[41]'
p133
aS'cADpyr232_L5_TTPC1_0fb1ca4724[0].dend[42]'
p134
aS'cADpyr232_L5_TTPC1_0fb1ca4724[0].dend[43]'
p135
aS'cADpyr232_L5_TTPC1_0fb1ca4724[0].dend[44]'
p136
aS'cADpyr232_L5_TTPC1_0fb1ca4724[0].dend[45]'
p137
aS'cADpyr232_L5_TTPC1_0fb1ca4724[0].dend[46]'
p138
aS'cADpyr232_L5_TTPC1_0fb1ca4724[0].dend[47]'
p139
aS'cADpyr232_L5_TTPC1_0fb1ca4724[0].dend[48]'
p140
aS'cADpyr232_L5_TTPC1_0fb1ca4724[0].dend[49]'
p141
aS'cADpyr232_L5_TTPC1_0fb1ca4724[0].dend[50]'
p142
aS'cADpyr232_L5_TTPC1_0fb1ca4724[0].dend[51]'
p143
aS'cADpyr232_L5_TTPC1_0fb1ca4724[0].dend[52]'
p144
aS'cADpyr232_L5_TTPC1_0fb1ca4724[0].dend[53]'
p145
aS'cADpyr232_L5_TTPC1_0fb1ca4724[0].dend[54]'
p146
aS'cADpyr232_L5_TTPC1_0fb1ca4724[0].dend[55]'
p147
aS'cADpyr232_L5_TTPC1_0fb1ca4724[0].dend[56]'
p148
aS'cADpyr232_L5_TTPC1_0fb1ca4724[0].dend[57]'
p149
aS'cADpyr232_L5_TTPC1_0fb1ca4724[0].dend[58]'
p150
aS'cADpyr232_L5_TTPC1_0fb1ca4724[0].dend[59]'
p151
aS'cADpyr232_L5_TTPC1_0fb1ca4724[0].dend[60]'
p152
aS'cADpyr232_L5_TTPC1_0fb1ca4724[0].dend[61]'
p153
aS'cADpyr232_L5_TTPC1_0fb1ca4724[0].dend[62]'
p154
aS'cADpyr232_L5_TTPC1_0fb1ca4724[0].dend[63]'
p155
aS'cADpyr232_L5_TTPC1_0fb1ca4724[0].dend[64]'
p156
aS'cADpyr232_L5_TTPC1_0fb1ca4724[0].dend[65]'
p157
aS'cADpyr232_L5_TTPC1_0fb1ca4724[0].dend[66]'
p158
aS'cADpyr232_L5_TTPC1_0fb1ca4724[0].dend[67]'
p159
aS'cADpyr232_L5_TTPC1_0fb1ca4724[0].dend[68]'
p160
aS'cADpyr232_L5_TTPC1_0fb1ca4724[0].dend[69]'
p161
aS'cADpyr232_L5_TTPC1_0fb1ca4724[0].dend[70]'
p162
aS'cADpyr232_L5_TTPC1_0fb1ca4724[0].dend[71]'
p163
aS'cADpyr232_L5_TTPC1_0fb1ca4724[0].dend[72]'
p164
aS'cADpyr232_L5_TTPC1_0fb1ca4724[0].dend[73]'
p165
aS'cADpyr232_L5_TTPC1_0fb1ca4724[0].dend[74]'
p166
aS'cADpyr232_L5_TTPC1_0fb1ca4724[0].dend[75]'
p167
aS'cADpyr232_L5_TTPC1_0fb1ca4724[0].dend[76]'
p168
aS'cADpyr232_L5_TTPC1_0fb1ca4724[0].dend[77]'
p169
aS'cADpyr232_L5_TTPC1_0fb1ca4724[0].dend[78]'
p170
aS'cADpyr232_L5_TTPC1_0fb1ca4724[0].dend[79]'
p171
aS'cADpyr232_L5_TTPC1_0fb1ca4724[0].dend[80]'
p172
aS'cADpyr232_L5_TTPC1_0fb1ca4724[0].dend[81]'
p173
aS'cADpyr232_L5_TTPC1_0fb1ca4724[0].dend[82]'
p174
aS'cADpyr232_L5_TTPC1_0fb1ca4724[0].dend[83]'
p175
aS'cADpyr232_L5_TTPC1_0fb1ca4724[0].dend[84]'
p176
aS'cADpyr232_L5_TTPC1_0fb1ca4724[0].dend[85]'
p177
aS'cADpyr232_L5_TTPC1_0fb1ca4724[0].dend[86]'
p178
aS'cADpyr232_L5_TTPC1_0fb1ca4724[0].dend[87]'
p179
aS'cADpyr232_L5_TTPC1_0fb1ca4724[0].dend[88]'
p180
aS'cADpyr232_L5_TTPC1_0fb1ca4724[0].dend[89]'
p181
aS'cADpyr232_L5_TTPC1_0fb1ca4724[0].dend[90]'
p182
aS'cADpyr232_L5_TTPC1_0fb1ca4724[0].dend[91]'
p183
aS'cADpyr232_L5_TTPC1_0fb1ca4724[0].dend[92]'
p184
aS'cADpyr232_L5_TTPC1_0fb1ca4724[0].dend[93]'
p185
aS'cADpyr232_L5_TTPC1_0fb1ca4724[0].dend[94]'
p186
aS'cADpyr232_L5_TTPC1_0fb1ca4724[0].dend[95]'
p187
aS'cADpyr232_L5_TTPC1_0fb1ca4724[0].dend[96]'
p188
aS'cADpyr232_L5_TTPC1_0fb1ca4724[0].dend[97]'
p189
aS'cADpyr232_L5_TTPC1_0fb1ca4724[0].dend[98]'
p190
aS'cADpyr232_L5_TTPC1_0fb1ca4724[0].dend[99]'
p191
aS'cADpyr232_L5_TTPC1_0fb1ca4724[0].dend[100]'
p192
aS'cADpyr232_L5_TTPC1_0fb1ca4724[0].dend[101]'
p193
aS'cADpyr232_L5_TTPC1_0fb1ca4724[0].dend[102]'
p194
aS'cADpyr232_L5_TTPC1_0fb1ca4724[0].dend[103]'
p195
aS'cADpyr232_L5_TTPC1_0fb1ca4724[0].dend[104]'
p196
aS'cADpyr232_L5_TTPC1_0fb1ca4724[0].dend[105]'
p197
aS'cADpyr232_L5_TTPC1_0fb1ca4724[0].dend[106]'
p198
aS'cADpyr232_L5_TTPC1_0fb1ca4724[0].dend[107]'
p199
aS'cADpyr232_L5_TTPC1_0fb1ca4724[0].dend[108]'
p200
aS'cADpyr232_L5_TTPC1_0fb1ca4724[0].dend[109]'
p201
aS'cADpyr232_L5_TTPC1_0fb1ca4724[0].dend[110]'
p202
aS'cADpyr232_L5_TTPC1_0fb1ca4724[0].dend[111]'
p203
aS'cADpyr232_L5_TTPC1_0fb1ca4724[0].dend[112]'
p204
aS'cADpyr232_L5_TTPC1_0fb1ca4724[0].apic[0]'
p205
aS'cADpyr232_L5_TTPC1_0fb1ca4724[0].apic[1]'
p206
aS'cADpyr232_L5_TTPC1_0fb1ca4724[0].apic[2]'
p207
aS'cADpyr232_L5_TTPC1_0fb1ca4724[0].apic[3]'
p208
aS'cADpyr232_L5_TTPC1_0fb1ca4724[0].apic[4]'
p209
aS'cADpyr232_L5_TTPC1_0fb1ca4724[0].apic[5]'
p210
aS'cADpyr232_L5_TTPC1_0fb1ca4724[0].apic[6]'
p211
aS'cADpyr232_L5_TTPC1_0fb1ca4724[0].apic[7]'
p212
aS'cADpyr232_L5_TTPC1_0fb1ca4724[0].apic[8]'
p213
aS'cADpyr232_L5_TTPC1_0fb1ca4724[0].apic[9]'
p214
aS'cADpyr232_L5_TTPC1_0fb1ca4724[0].apic[10]'
p215
aS'cADpyr232_L5_TTPC1_0fb1ca4724[0].apic[11]'
p216
aS'cADpyr232_L5_TTPC1_0fb1ca4724[0].apic[12]'
p217
aS'cADpyr232_L5_TTPC1_0fb1ca4724[0].apic[13]'
p218
aS'cADpyr232_L5_TTPC1_0fb1ca4724[0].apic[14]'
p219
aS'cADpyr232_L5_TTPC1_0fb1ca4724[0].apic[15]'
p220
aS'cADpyr232_L5_TTPC1_0fb1ca4724[0].apic[16]'
p221
aS'cADpyr232_L5_TTPC1_0fb1ca4724[0].apic[17]'
p222
aS'cADpyr232_L5_TTPC1_0fb1ca4724[0].apic[18]'
p223
aS'cADpyr232_L5_TTPC1_0fb1ca4724[0].apic[19]'
p224
aS'cADpyr232_L5_TTPC1_0fb1ca4724[0].apic[20]'
p225
aS'cADpyr232_L5_TTPC1_0fb1ca4724[0].apic[21]'
p226
aS'cADpyr232_L5_TTPC1_0fb1ca4724[0].apic[22]'
p227
aS'cADpyr232_L5_TTPC1_0fb1ca4724[0].apic[23]'
p228
aS'cADpyr232_L5_TTPC1_0fb1ca4724[0].apic[24]'
p229
aS'cADpyr232_L5_TTPC1_0fb1ca4724[0].apic[25]'
p230
aS'cADpyr232_L5_TTPC1_0fb1ca4724[0].apic[26]'
p231
aS'cADpyr232_L5_TTPC1_0fb1ca4724[0].apic[27]'
p232
aS'cADpyr232_L5_TTPC1_0fb1ca4724[0].apic[28]'
p233
aS'cADpyr232_L5_TTPC1_0fb1ca4724[0].apic[29]'
p234
aS'cADpyr232_L5_TTPC1_0fb1ca4724[0].apic[30]'
p235
aS'cADpyr232_L5_TTPC1_0fb1ca4724[0].apic[31]'
p236
aS'cADpyr232_L5_TTPC1_0fb1ca4724[0].apic[32]'
p237
aS'cADpyr232_L5_TTPC1_0fb1ca4724[0].apic[33]'
p238
aS'cADpyr232_L5_TTPC1_0fb1ca4724[0].apic[34]'
p239
aS'cADpyr232_L5_TTPC1_0fb1ca4724[0].apic[35]'
p240
aS'cADpyr232_L5_TTPC1_0fb1ca4724[0].apic[36]'
p241
aS'cADpyr232_L5_TTPC1_0fb1ca4724[0].apic[37]'
p242
aS'cADpyr232_L5_TTPC1_0fb1ca4724[0].apic[38]'
p243
aS'cADpyr232_L5_TTPC1_0fb1ca4724[0].apic[39]'
p244
aS'cADpyr232_L5_TTPC1_0fb1ca4724[0].apic[40]'
p245
aS'cADpyr232_L5_TTPC1_0fb1ca4724[0].apic[41]'
p246
aS'cADpyr232_L5_TTPC1_0fb1ca4724[0].apic[42]'
p247
aS'cADpyr232_L5_TTPC1_0fb1ca4724[0].apic[43]'
p248
aS'cADpyr232_L5_TTPC1_0fb1ca4724[0].apic[44]'
p249
aS'cADpyr232_L5_TTPC1_0fb1ca4724[0].apic[45]'
p250
aS'cADpyr232_L5_TTPC1_0fb1ca4724[0].apic[46]'
p251
aS'cADpyr232_L5_TTPC1_0fb1ca4724[0].apic[47]'
p252
aS'cADpyr232_L5_TTPC1_0fb1ca4724[0].apic[48]'
p253
aS'cADpyr232_L5_TTPC1_0fb1ca4724[0].apic[49]'
p254
aS'cADpyr232_L5_TTPC1_0fb1ca4724[0].apic[50]'
p255
aS'cADpyr232_L5_TTPC1_0fb1ca4724[0].apic[51]'
p256
aS'cADpyr232_L5_TTPC1_0fb1ca4724[0].apic[52]'
p257
aS'cADpyr232_L5_TTPC1_0fb1ca4724[0].apic[53]'
p258
aS'cADpyr232_L5_TTPC1_0fb1ca4724[0].apic[54]'
p259
aS'cADpyr232_L5_TTPC1_0fb1ca4724[0].apic[55]'
p260
aS'cADpyr232_L5_TTPC1_0fb1ca4724[0].apic[56]'
p261
aS'cADpyr232_L5_TTPC1_0fb1ca4724[0].apic[57]'
p262
aS'cADpyr232_L5_TTPC1_0fb1ca4724[0].apic[58]'
p263
aS'cADpyr232_L5_TTPC1_0fb1ca4724[0].apic[59]'
p264
aS'cADpyr232_L5_TTPC1_0fb1ca4724[0].apic[60]'
p265
aS'cADpyr232_L5_TTPC1_0fb1ca4724[0].apic[61]'
p266
aS'cADpyr232_L5_TTPC1_0fb1ca4724[0].apic[62]'
p267
aS'cADpyr232_L5_TTPC1_0fb1ca4724[0].apic[63]'
p268
aS'cADpyr232_L5_TTPC1_0fb1ca4724[0].apic[64]'
p269
aS'cADpyr232_L5_TTPC1_0fb1ca4724[0].apic[65]'
p270
aS'cADpyr232_L5_TTPC1_0fb1ca4724[0].apic[66]'
p271
aS'cADpyr232_L5_TTPC1_0fb1ca4724[0].apic[67]'
p272
aS'cADpyr232_L5_TTPC1_0fb1ca4724[0].apic[68]'
p273
aS'cADpyr232_L5_TTPC1_0fb1ca4724[0].apic[69]'
p274
aS'cADpyr232_L5_TTPC1_0fb1ca4724[0].apic[70]'
p275
aS'cADpyr232_L5_TTPC1_0fb1ca4724[0].apic[71]'
p276
aS'cADpyr232_L5_TTPC1_0fb1ca4724[0].apic[72]'
p277
aS'cADpyr232_L5_TTPC1_0fb1ca4724[0].apic[73]'
p278
aS'cADpyr232_L5_TTPC1_0fb1ca4724[0].apic[74]'
p279
aS'cADpyr232_L5_TTPC1_0fb1ca4724[0].apic[75]'
p280
aS'cADpyr232_L5_TTPC1_0fb1ca4724[0].apic[76]'
p281
aS'cADpyr232_L5_TTPC1_0fb1ca4724[0].apic[77]'
p282
aS'cADpyr232_L5_TTPC1_0fb1ca4724[0].apic[78]'
p283
aS'cADpyr232_L5_TTPC1_0fb1ca4724[0].apic[79]'
p284
aS'cADpyr232_L5_TTPC1_0fb1ca4724[0].apic[80]'
p285
aS'cADpyr232_L5_TTPC1_0fb1ca4724[0].apic[81]'
p286
aS'cADpyr232_L5_TTPC1_0fb1ca4724[0].apic[82]'
p287
aS'cADpyr232_L5_TTPC1_0fb1ca4724[0].apic[83]'
p288
aS'cADpyr232_L5_TTPC1_0fb1ca4724[0].apic[84]'
p289
aS'cADpyr232_L5_TTPC1_0fb1ca4724[0].apic[85]'
p290
aS'cADpyr232_L5_TTPC1_0fb1ca4724[0].apic[86]'
p291
aS'cADpyr232_L5_TTPC1_0fb1ca4724[0].apic[87]'
p292
aS'cADpyr232_L5_TTPC1_0fb1ca4724[0].apic[88]'
p293
aS'cADpyr232_L5_TTPC1_0fb1ca4724[0].apic[89]'
p294
aS'cADpyr232_L5_TTPC1_0fb1ca4724[0].apic[90]'
p295
aS'cADpyr232_L5_TTPC1_0fb1ca4724[0].apic[91]'
p296
aS'cADpyr232_L5_TTPC1_0fb1ca4724[0].apic[92]'
p297
aS'cADpyr232_L5_TTPC1_0fb1ca4724[0].apic[93]'
p298
aS'cADpyr232_L5_TTPC1_0fb1ca4724[0].apic[94]'
p299
aS'cADpyr232_L5_TTPC1_0fb1ca4724[0].apic[95]'
p300
aS'cADpyr232_L5_TTPC1_0fb1ca4724[0].apic[96]'
p301
aS'cADpyr232_L5_TTPC1_0fb1ca4724[0].apic[97]'
p302
aS'cADpyr232_L5_TTPC1_0fb1ca4724[0].apic[98]'
p303
aS'cADpyr232_L5_TTPC1_0fb1ca4724[0].apic[99]'
p304
aS'cADpyr232_L5_TTPC1_0fb1ca4724[0].apic[100]'
p305
aS'cADpyr232_L5_TTPC1_0fb1ca4724[0].apic[101]'
p306
aS'cADpyr232_L5_TTPC1_0fb1ca4724[0].apic[102]'
p307
aS'cADpyr232_L5_TTPC1_0fb1ca4724[0].apic[103]'
p308
aS'cADpyr232_L5_TTPC1_0fb1ca4724[0].apic[104]'
p309
aS'cADpyr232_L5_TTPC1_0fb1ca4724[0].apic[105]'
p310
aS'cADpyr232_L5_TTPC1_0fb1ca4724[0].apic[106]'
p311
aS'cADpyr232_L5_TTPC1_0fb1ca4724[0].apic[107]'
p312
aS'cADpyr232_L5_TTPC1_0fb1ca4724[0].apic[108]'
p313
aS'cADpyr232_L5_TTPC1_0fb1ca4724[0].apic[109]'
p314
aS'cADpyr232_L5_TTPC1_0fb1ca4724[0].apic[110]'
p315
aS'cADpyr232_L5_TTPC1_0fb1ca4724[0].apic[111]'
p316
aS'cADpyr232_L5_TTPC1_0fb1ca4724[0].apic[112]'
p317
aS'cADpyr232_L5_TTPC1_0fb1ca4724[0].apic[113]'
p318
aS'cADpyr232_L5_TTPC1_0fb1ca4724[0].apic[114]'
p319
aS'cADpyr232_L5_TTPC1_0fb1ca4724[0].apic[115]'
p320
aS'cADpyr232_L5_TTPC1_0fb1ca4724[0].apic[116]'
p321
aS'cADpyr232_L5_TTPC1_0fb1ca4724[0].apic[117]'
p322
aS'cADpyr232_L5_TTPC1_0fb1ca4724[0].apic[118]'
p323
aS'cADpyr232_L5_TTPC1_0fb1ca4724[0].apic[119]'
p324
aS'cADpyr232_L5_TTPC1_0fb1ca4724[0].apic[120]'
p325
aS'cADpyr232_L5_TTPC1_0fb1ca4724[0].apic[121]'
p326
aS'cADpyr232_L5_TTPC1_0fb1ca4724[0].apic[122]'
p327
aS'cADpyr232_L5_TTPC1_0fb1ca4724[0].axon[0]'
p328
aS'cADpyr232_L5_TTPC1_0fb1ca4724[0].axon[1]'
p329
aS'Exts[0]'
p330
aS'Exts[1]'
p331
aa(lp332
(lp333
g49
ag44
ag51
ag46
ag40
ag39
ag43
ag41
aa(lp334
g46
ag39
aa(lp335
g46
ag39
aa(lp336
g46
ag39
aa(lp337
g46
ag39
aa(lp338
g46
ag39
aa(lp339
g46
ag39
aa(lp340
g46
ag39
aa(lp341
g46
ag39
aa(lp342
g46
ag39
aa(lp343
g46
ag39
aa(lp344
g46
ag39
aa(lp345
g46
ag39
aa(lp346
g46
ag39
aa(lp347
g46
ag39
aa(lp348
g46
ag39
aa(lp349
g46
ag39
aa(lp350
g46
ag39
aa(lp351
g46
ag39
aa(lp352
g46
ag39
aa(lp353
g46
ag39
aa(lp354
g46
ag39
aa(lp355
g46
ag39
aa(lp356
g46
ag39
aa(lp357
g46
ag39
aa(lp358
g46
ag39
aa(lp359
g46
ag39
aa(lp360
g46
ag39
aa(lp361
g46
ag39
aa(lp362
g46
ag39
aa(lp363
g46
ag39
aa(lp364
g46
ag39
aa(lp365
g46
ag39
aa(lp366
g46
ag39
aa(lp367
g46
ag39
aa(lp368
g46
ag39
aa(lp369
g46
ag39
aa(lp370
g46
ag39
aa(lp371
g46
ag39
aa(lp372
g46
ag39
aa(lp373
g46
ag39
aa(lp374
g46
ag39
aa(lp375
g46
ag39
aa(lp376
g46
ag39
aa(lp377
g46
ag39
aa(lp378
g46
ag39
aa(lp379
g46
ag39
aa(lp380
g46
ag39
aa(lp381
g46
ag39
aa(lp382
g46
ag39
aa(lp383
g46
ag39
aa(lp384
g46
ag39
aa(lp385
g46
ag39
aa(lp386
g46
ag39
aa(lp387
g46
ag39
aa(lp388
g46
ag39
aa(lp389
g46
ag39
aa(lp390
g46
ag39
aa(lp391
g46
ag39
aa(lp392
g46
ag39
aa(lp393
g46
ag39
aa(lp394
g46
ag39
aa(lp395
g46
ag39
aa(lp396
g46
ag39
aa(lp397
g46
ag39
aa(lp398
g46
ag39
aa(lp399
g46
ag39
aa(lp400
g46
ag39
aa(lp401
g46
ag39
aa(lp402
g46
ag39
aa(lp403
g46
ag39
aa(lp404
g46
ag39
aa(lp405
g46
ag39
aa(lp406
g46
ag39
aa(lp407
g46
ag39
aa(lp408
g46
ag39
aa(lp409
g46
ag39
aa(lp410
g46
ag39
aa(lp411
g46
ag39
aa(lp412
g46
ag39
aa(lp413
g46
ag39
aa(lp414
g46
ag39
aa(lp415
g46
ag39
aa(lp416
g46
ag39
aa(lp417
g46
ag39
aa(lp418
g46
ag39
aa(lp419
g46
ag39
aa(lp420
g46
ag39
aa(lp421
g46
ag39
aa(lp422
g46
ag39
aa(lp423
g46
ag39
aa(lp424
g46
ag39
aa(lp425
g46
ag39
aa(lp426
g46
ag39
aa(lp427
g46
ag39
aa(lp428
g46
ag39
aa(lp429
g46
ag39
aa(lp430
g46
ag39
aa(lp431
g46
ag39
aa(lp432
g46
ag39
aa(lp433
g46
ag39
aa(lp434
g46
ag39
aa(lp435
g46
ag39
aa(lp436
g46
ag39
aa(lp437
g46
ag39
aa(lp438
g46
ag39
aa(lp439
g46
ag39
aa(lp440
g46
ag39
aa(lp441
g46
ag39
aa(lp442
g46
ag39
aa(lp443
g46
ag39
aa(lp444
g46
ag39
aa(lp445
g46
ag39
aa(lp446
g46
ag39
aa(lp447
g46
ag47
ag40
ag39
ag41
aa(lp448
g46
ag47
ag40
ag39
ag41
aa(lp449
g46
ag47
ag40
ag39
ag41
aa(lp450
g46
ag47
ag40
ag39
ag41
aa(lp451
g46
ag47
ag40
ag39
ag41
aa(lp452
g46
ag47
ag40
ag39
ag41
aa(lp453
g46
ag47
ag40
ag39
ag41
aa(lp454
g46
ag47
ag40
ag39
ag41
aa(lp455
g46
ag47
ag40
ag39
ag41
aa(lp456
g46
ag47
ag40
ag39
ag41
aa(lp457
g46
ag47
ag40
ag39
ag41
aa(lp458
g46
ag47
ag40
ag39
ag41
aa(lp459
g46
ag47
ag40
ag39
ag41
aa(lp460
g46
ag47
ag40
ag39
ag41
aa(lp461
g46
ag47
ag40
ag39
ag41
aa(lp462
g46
ag47
ag40
ag39
ag41
aa(lp463
g46
ag47
ag40
ag39
ag41
aa(lp464
g46
ag47
ag40
ag39
ag41
aa(lp465
g46
ag47
ag40
ag39
ag41
aa(lp466
g46
ag47
ag40
ag39
ag41
aa(lp467
g46
ag47
ag40
ag39
ag41
aa(lp468
g46
ag47
ag40
ag39
ag41
aa(lp469
g46
ag47
ag40
ag39
ag41
aa(lp470
g46
ag47
ag40
ag39
ag41
aa(lp471
g46
ag47
ag40
ag39
ag41
aa(lp472
g46
ag47
ag40
ag39
ag41
aa(lp473
g46
ag47
ag40
ag39
ag41
aa(lp474
g46
ag47
ag40
ag39
ag41
aa(lp475
g46
ag47
ag40
ag39
ag41
aa(lp476
g46
ag47
ag40
ag39
ag41
aa(lp477
g46
ag47
ag40
ag39
ag41
aa(lp478
g46
ag47
ag40
ag39
ag41
aa(lp479
g46
ag47
ag40
ag39
ag41
aa(lp480
g46
ag47
ag40
ag39
ag41
aa(lp481
g46
ag47
ag40
ag39
ag41
aa(lp482
g46
ag47
ag40
ag39
ag41
aa(lp483
g46
ag47
ag40
ag39
ag41
aa(lp484
g46
ag47
ag40
ag39
ag41
aa(lp485
g46
ag47
ag40
ag39
ag41
aa(lp486
g46
ag47
ag40
ag39
ag41
aa(lp487
g46
ag47
ag40
ag39
ag41
aa(lp488
g46
ag47
ag40
ag39
ag41
aa(lp489
g46
ag47
ag40
ag39
ag41
aa(lp490
g46
ag47
ag40
ag39
ag41
aa(lp491
g46
ag47
ag40
ag39
ag41
aa(lp492
g46
ag47
ag40
ag39
ag41
aa(lp493
g46
ag47
ag40
ag39
ag41
aa(lp494
g46
ag47
ag40
ag39
ag41
aa(lp495
g46
ag47
ag40
ag39
ag41
aa(lp496
g46
ag47
ag40
ag39
ag41
aa(lp497
g46
ag47
ag40
ag39
ag41
aa(lp498
g46
ag47
ag40
ag39
ag41
aa(lp499
g46
ag47
ag40
ag39
ag41
aa(lp500
g46
ag47
ag40
ag39
ag41
aa(lp501
g46
ag47
ag40
ag39
ag41
aa(lp502
g46
ag47
ag40
ag39
ag41
aa(lp503
g46
ag47
ag40
ag39
ag41
aa(lp504
g46
ag47
ag40
ag39
ag41
aa(lp505
g46
ag47
ag40
ag39
ag41
aa(lp506
g46
ag47
ag40
ag39
ag41
aa(lp507
g46
ag47
ag40
ag39
ag41
aa(lp508
g46
ag47
ag40
ag39
ag41
aa(lp509
g46
ag47
ag40
ag39
ag41
aa(lp510
g46
ag47
ag40
ag39
ag41
aa(lp511
g46
ag47
ag40
ag39
ag41
aa(lp512
g46
ag47
ag40
ag39
ag41
aa(lp513
g46
ag47
ag40
ag39
ag41
aa(lp514
g46
ag47
ag40
ag39
ag41
aa(lp515
g46
ag47
ag40
ag39
ag41
aa(lp516
g46
ag47
ag40
ag39
ag41
aa(lp517
g46
ag47
ag40
ag39
ag41
aa(lp518
g46
ag47
ag40
ag39
ag41
aa(lp519
g46
ag47
ag40
ag39
ag41
aa(lp520
g46
ag47
ag40
ag39
ag41
aa(lp521
g46
ag47
ag40
ag39
ag41
aa(lp522
g46
ag47
ag40
ag39
ag41
aa(lp523
g46
ag47
ag40
ag39
ag41
aa(lp524
g46
ag47
ag40
ag39
ag41
aa(lp525
g46
ag47
ag40
ag39
ag41
aa(lp526
g46
ag47
ag40
ag39
ag41
aa(lp527
g46
ag47
ag40
ag39
ag41
aa(lp528
g46
ag47
ag40
ag39
ag41
aa(lp529
g46
ag47
ag40
ag39
ag41
aa(lp530
g46
ag47
ag40
ag39
ag41
aa(lp531
g46
ag47
ag40
ag39
ag41
aa(lp532
g46
ag47
ag40
ag39
ag41
aa(lp533
g46
ag47
ag40
ag39
ag41
aa(lp534
g46
ag47
ag40
ag39
ag41
aa(lp535
g46
ag47
ag40
ag39
ag41
aa(lp536
g46
ag47
ag40
ag39
ag41
aa(lp537
g46
ag47
ag40
ag39
ag41
aa(lp538
g46
ag47
ag40
ag39
ag41
aa(lp539
g46
ag47
ag40
ag39
ag41
aa(lp540
g46
ag47
ag40
ag39
ag41
aa(lp541
g46
ag47
ag40
ag39
ag41
aa(lp542
g46
ag47
ag40
ag39
ag41
aa(lp543
g46
ag47
ag40
ag39
ag41
aa(lp544
g46
ag47
ag40
ag39
ag41
aa(lp545
g46
ag47
ag40
ag39
ag41
aa(lp546
g46
ag47
ag40
ag39
ag41
aa(lp547
g46
ag47
ag40
ag39
ag41
aa(lp548
g46
ag47
ag40
ag39
ag41
aa(lp549
g46
ag47
ag40
ag39
ag41
aa(lp550
g46
ag47
ag40
ag39
ag41
aa(lp551
g46
ag47
ag40
ag39
ag41
aa(lp552
g46
ag47
ag40
ag39
ag41
aa(lp553
g46
ag47
ag40
ag39
ag41
aa(lp554
g46
ag47
ag40
ag39
ag41
aa(lp555
g46
ag47
ag40
ag39
ag41
aa(lp556
g46
ag47
ag40
ag39
ag41
aa(lp557
g46
ag47
ag40
ag39
ag41
aa(lp558
g46
ag47
ag40
ag39
ag41
aa(lp559
g46
ag47
ag40
ag39
ag41
aa(lp560
g46
ag47
ag40
ag39
ag41
aa(lp561
g46
ag47
ag40
ag39
ag41
aa(lp562
g46
ag47
ag40
ag39
ag41
aa(lp563
g46
ag47
ag40
ag39
ag41
aa(lp564
g46
ag47
ag40
ag39
ag41
aa(lp565
g46
ag47
ag40
ag39
ag41
aa(lp566
g46
ag47
ag40
ag39
ag41
aa(lp567
g46
ag47
ag40
ag39
ag41
aa(lp568
g46
ag47
ag40
ag39
ag41
aa(lp569
g46
ag47
ag40
ag39
ag41
aa(lp570
g49
ag44
ag51
ag48
ag50
ag45
ag42
ag39
ag43
ag41
aa(lp571
g49
ag44
ag51
ag48
ag50
ag45
ag42
ag39
ag43
ag41
aa(lp572
a(lp573
aa(lp574
S'celsius'
p575
aS'stoprun'
p576
aS'clamp_resist'
p577
aS'secondorder'
p578
aa(lp579
a(lp580
S'cADpyr232_L5_TTPC1_0fb1ca4724[0].soma[0]'
p581
aS'Exts[0]'
p582
aS'cADpyr232_L5_TTPC1_0fb1ca4724[0].apic[0]'
p583
aS'cADpyr232_L5_TTPC1_0fb1ca4724[0].dend[73]'
p584
aS'cADpyr232_L5_TTPC1_0fb1ca4724[0].dend[68]'
p585
aS'cADpyr232_L5_TTPC1_0fb1ca4724[0].dend[63]'
p586
aS'cADpyr232_L5_TTPC1_0fb1ca4724[0].dend[60]'
p587
aS'cADpyr232_L5_TTPC1_0fb1ca4724[0].dend[57]'
p588
aS'cADpyr232_L5_TTPC1_0fb1ca4724[0].dend[32]'
p589
aS'cADpyr232_L5_TTPC1_0fb1ca4724[0].dend[17]'
p590
aS'cADpyr232_L5_TTPC1_0fb1ca4724[0].dend[10]'
p591
aS'cADpyr232_L5_TTPC1_0fb1ca4724[0].dend[3]'
p592
aS'cADpyr232_L5_TTPC1_0fb1ca4724[0].dend[0]'
p593
aS'cADpyr232_L5_TTPC1_0fb1ca4724[0].axon[0]'
p594
aS'cADpyr232_L5_TTPC1_0fb1ca4724[0].apic[114]'
p595
aS'cADpyr232_L5_TTPC1_0fb1ca4724[0].apic[1]'
p596
aS'cADpyr232_L5_TTPC1_0fb1ca4724[0].dend[87]'
p597
aS'cADpyr232_L5_TTPC1_0fb1ca4724[0].dend[74]'
p598
aS'cADpyr232_L5_TTPC1_0fb1ca4724[0].dend[72]'
p599
aS'cADpyr232_L5_TTPC1_0fb1ca4724[0].dend[69]'
p600
aS'cADpyr232_L5_TTPC1_0fb1ca4724[0].dend[67]'
p601
aS'cADpyr232_L5_TTPC1_0fb1ca4724[0].dend[64]'
p602
aS'cADpyr232_L5_TTPC1_0fb1ca4724[0].dend[62]'
p603
aS'cADpyr232_L5_TTPC1_0fb1ca4724[0].dend[61]'
p604
aS'cADpyr232_L5_TTPC1_0fb1ca4724[0].dend[59]'
p605
aS'cADpyr232_L5_TTPC1_0fb1ca4724[0].dend[58]'
p606
aS'cADpyr232_L5_TTPC1_0fb1ca4724[0].dend[56]'
p607
aS'cADpyr232_L5_TTPC1_0fb1ca4724[0].dend[33]'
p608
aS'cADpyr232_L5_TTPC1_0fb1ca4724[0].dend[29]'
p609
aS'cADpyr232_L5_TTPC1_0fb1ca4724[0].dend[18]'
p610
aS'cADpyr232_L5_TTPC1_0fb1ca4724[0].dend[12]'
p611
aS'cADpyr232_L5_TTPC1_0fb1ca4724[0].dend[11]'
p612
aS'cADpyr232_L5_TTPC1_0fb1ca4724[0].dend[7]'
p613
aS'cADpyr232_L5_TTPC1_0fb1ca4724[0].dend[4]'
p614
aS'cADpyr232_L5_TTPC1_0fb1ca4724[0].dend[2]'
p615
aS'cADpyr232_L5_TTPC1_0fb1ca4724[0].dend[1]'
p616
aS'cADpyr232_L5_TTPC1_0fb1ca4724[0].axon[1]'
p617
aS'cADpyr232_L5_TTPC1_0fb1ca4724[0].apic[122]'
p618
aS'cADpyr232_L5_TTPC1_0fb1ca4724[0].apic[115]'
p619
aS'cADpyr232_L5_TTPC1_0fb1ca4724[0].apic[3]'
p620
aS'cADpyr232_L5_TTPC1_0fb1ca4724[0].apic[2]'
p621
aS'cADpyr232_L5_TTPC1_0fb1ca4724[0].dend[93]'
p622
aS'cADpyr232_L5_TTPC1_0fb1ca4724[0].dend[88]'
p623
aS'cADpyr232_L5_TTPC1_0fb1ca4724[0].dend[80]'
p624
aS'cADpyr232_L5_TTPC1_0fb1ca4724[0].dend[75]'
p625
aS'cADpyr232_L5_TTPC1_0fb1ca4724[0].dend[71]'
p626
aS'cADpyr232_L5_TTPC1_0fb1ca4724[0].dend[70]'
p627
aS'cADpyr232_L5_TTPC1_0fb1ca4724[0].dend[66]'
p628
aS'cADpyr232_L5_TTPC1_0fb1ca4724[0].dend[65]'
p629
aS'cADpyr232_L5_TTPC1_0fb1ca4724[0].dend[51]'
p630
aS'cADpyr232_L5_TTPC1_0fb1ca4724[0].dend[34]'
p631
aS'cADpyr232_L5_TTPC1_0fb1ca4724[0].dend[31]'
p632
aS'cADpyr232_L5_TTPC1_0fb1ca4724[0].dend[30]'
p633
aS'cADpyr232_L5_TTPC1_0fb1ca4724[0].dend[26]'
p634
aS'cADpyr232_L5_TTPC1_0fb1ca4724[0].dend[19]'
p635
aS'cADpyr232_L5_TTPC1_0fb1ca4724[0].dend[16]'
p636
aS'cADpyr232_L5_TTPC1_0fb1ca4724[0].dend[13]'
p637
aS'cADpyr232_L5_TTPC1_0fb1ca4724[0].dend[9]'
p638
aS'cADpyr232_L5_TTPC1_0fb1ca4724[0].dend[8]'
p639
aS'cADpyr232_L5_TTPC1_0fb1ca4724[0].dend[6]'
p640
aS'cADpyr232_L5_TTPC1_0fb1ca4724[0].dend[5]'
p641
aS'cADpyr232_L5_TTPC1_0fb1ca4724[0].apic[121]'
p642
aS'cADpyr232_L5_TTPC1_0fb1ca4724[0].apic[116]'
p643
aS'cADpyr232_L5_TTPC1_0fb1ca4724[0].apic[5]'
p644
aS'cADpyr232_L5_TTPC1_0fb1ca4724[0].apic[4]'
p645
aS'Exts[1]'
p646
aS'cADpyr232_L5_TTPC1_0fb1ca4724[0].dend[90]'
p647
aS'cADpyr232_L5_TTPC1_0fb1ca4724[0].dend[89]'
p648
aS'cADpyr232_L5_TTPC1_0fb1ca4724[0].dend[82]'
p649
aS'cADpyr232_L5_TTPC1_0fb1ca4724[0].dend[81]'
p650
aS'cADpyr232_L5_TTPC1_0fb1ca4724[0].dend[77]'
p651
aS'cADpyr232_L5_TTPC1_0fb1ca4724[0].dend[76]'
p652
aS'cADpyr232_L5_TTPC1_0fb1ca4724[0].dend[55]'
p653
aS'cADpyr232_L5_TTPC1_0fb1ca4724[0].dend[52]'
p654
aS'cADpyr232_L5_TTPC1_0fb1ca4724[0].dend[38]'
p655
aS'cADpyr232_L5_TTPC1_0fb1ca4724[0].dend[35]'
p656
aS'cADpyr232_L5_TTPC1_0fb1ca4724[0].dend[28]'
p657
aS'cADpyr232_L5_TTPC1_0fb1ca4724[0].dend[27]'
p658
aS'cADpyr232_L5_TTPC1_0fb1ca4724[0].dend[23]'
p659
aS'cADpyr232_L5_TTPC1_0fb1ca4724[0].dend[20]'
p660
aS'cADpyr232_L5_TTPC1_0fb1ca4724[0].dend[15]'
p661
aS'cADpyr232_L5_TTPC1_0fb1ca4724[0].dend[14]'
p662
aS'cADpyr232_L5_TTPC1_0fb1ca4724[0].apic[120]'
p663
aS'cADpyr232_L5_TTPC1_0fb1ca4724[0].apic[117]'
p664
aS'cADpyr232_L5_TTPC1_0fb1ca4724[0].apic[17]'
p665
aS'cADpyr232_L5_TTPC1_0fb1ca4724[0].apic[6]'
p666
aS'cADpyr232_L5_TTPC1_0fb1ca4724[0].dend[100]'
p667
aS'cADpyr232_L5_TTPC1_0fb1ca4724[0].dend[99]'
p668
aS'cADpyr232_L5_TTPC1_0fb1ca4724[0].dend[94]'
p669
aS'cADpyr232_L5_TTPC1_0fb1ca4724[0].dend[92]'
p670
aS'cADpyr232_L5_TTPC1_0fb1ca4724[0].dend[91]'
p671
aS'cADpyr232_L5_TTPC1_0fb1ca4724[0].dend[86]'
p672
aS'cADpyr232_L5_TTPC1_0fb1ca4724[0].dend[83]'
p673
aS'cADpyr232_L5_TTPC1_0fb1ca4724[0].dend[79]'
p674
aS'cADpyr232_L5_TTPC1_0fb1ca4724[0].dend[78]'
p675
aS'cADpyr232_L5_TTPC1_0fb1ca4724[0].dend[54]'
p676
aS'cADpyr232_L5_TTPC1_0fb1ca4724[0].dend[53]'
p677
aS'cADpyr232_L5_TTPC1_0fb1ca4724[0].dend[46]'
p678
aS'cADpyr232_L5_TTPC1_0fb1ca4724[0].dend[39]'
p679
aS'cADpyr232_L5_TTPC1_0fb1ca4724[0].dend[37]'
p680
aS'cADpyr232_L5_TTPC1_0fb1ca4724[0].dend[36]'
p681
aS'cADpyr232_L5_TTPC1_0fb1ca4724[0].dend[25]'
p682
aS'cADpyr232_L5_TTPC1_0fb1ca4724[0].dend[24]'
p683
aS'cADpyr232_L5_TTPC1_0fb1ca4724[0].dend[22]'
p684
aS'cADpyr232_L5_TTPC1_0fb1ca4724[0].dend[21]'
p685
aS'cADpyr232_L5_TTPC1_0fb1ca4724[0].apic[119]'
p686
aS'cADpyr232_L5_TTPC1_0fb1ca4724[0].apic[118]'
p687
aS'cADpyr232_L5_TTPC1_0fb1ca4724[0].apic[113]'
p688
aS'cADpyr232_L5_TTPC1_0fb1ca4724[0].apic[18]'
p689
aS'cADpyr232_L5_TTPC1_0fb1ca4724[0].apic[12]'
p690
aS'cADpyr232_L5_TTPC1_0fb1ca4724[0].apic[7]'
p691
aS'cADpyr232_L5_TTPC1_0fb1ca4724[0].dend[104]'
p692
aS'cADpyr232_L5_TTPC1_0fb1ca4724[0].dend[101]'
p693
aS'cADpyr232_L5_TTPC1_0fb1ca4724[0].dend[98]'
p694
aS'cADpyr232_L5_TTPC1_0fb1ca4724[0].dend[95]'
p695
aS'cADpyr232_L5_TTPC1_0fb1ca4724[0].dend[85]'
p696
aS'cADpyr232_L5_TTPC1_0fb1ca4724[0].dend[84]'
p697
aS'cADpyr232_L5_TTPC1_0fb1ca4724[0].dend[48]'
p698
aS'cADpyr232_L5_TTPC1_0fb1ca4724[0].dend[47]'
p699
aS'cADpyr232_L5_TTPC1_0fb1ca4724[0].dend[45]'
p700
aS'cADpyr232_L5_TTPC1_0fb1ca4724[0].dend[40]'
p701
aS'cADpyr232_L5_TTPC1_0fb1ca4724[0].apic[30]'
p702
aS'cADpyr232_L5_TTPC1_0fb1ca4724[0].apic[19]'
p703
aS'cADpyr232_L5_TTPC1_0fb1ca4724[0].apic[14]'
p704
aS'cADpyr232_L5_TTPC1_0fb1ca4724[0].apic[13]'
p705
aS'cADpyr232_L5_TTPC1_0fb1ca4724[0].apic[11]'
p706
aS'cADpyr232_L5_TTPC1_0fb1ca4724[0].apic[8]'
p707
aS'cADpyr232_L5_TTPC1_0fb1ca4724[0].dend[108]'
p708
aS'cADpyr232_L5_TTPC1_0fb1ca4724[0].dend[105]'
p709
aS'cADpyr232_L5_TTPC1_0fb1ca4724[0].dend[103]'
p710
aS'cADpyr232_L5_TTPC1_0fb1ca4724[0].dend[102]'
p711
aS'cADpyr232_L5_TTPC1_0fb1ca4724[0].dend[97]'
p712
aS'cADpyr232_L5_TTPC1_0fb1ca4724[0].dend[96]'
p713
aS'cADpyr232_L5_TTPC1_0fb1ca4724[0].dend[50]'
p714
aS'cADpyr232_L5_TTPC1_0fb1ca4724[0].dend[49]'
p715
aS'cADpyr232_L5_TTPC1_0fb1ca4724[0].dend[42]'
p716
aS'cADpyr232_L5_TTPC1_0fb1ca4724[0].dend[41]'
p717
aS'cADpyr232_L5_TTPC1_0fb1ca4724[0].apic[34]'
p718
aS'cADpyr232_L5_TTPC1_0fb1ca4724[0].apic[31]'
p719
aS'cADpyr232_L5_TTPC1_0fb1ca4724[0].apic[27]'
p720
aS'cADpyr232_L5_TTPC1_0fb1ca4724[0].apic[20]'
p721
aS'cADpyr232_L5_TTPC1_0fb1ca4724[0].apic[16]'
p722
aS'cADpyr232_L5_TTPC1_0fb1ca4724[0].apic[15]'
p723
aS'cADpyr232_L5_TTPC1_0fb1ca4724[0].apic[10]'
p724
aS'cADpyr232_L5_TTPC1_0fb1ca4724[0].apic[9]'
p725
aS'cADpyr232_L5_TTPC1_0fb1ca4724[0].dend[110]'
p726
aS'cADpyr232_L5_TTPC1_0fb1ca4724[0].dend[109]'
p727
aS'cADpyr232_L5_TTPC1_0fb1ca4724[0].dend[107]'
p728
aS'cADpyr232_L5_TTPC1_0fb1ca4724[0].dend[106]'
p729
aS'cADpyr232_L5_TTPC1_0fb1ca4724[0].dend[44]'
p730
aS'cADpyr232_L5_TTPC1_0fb1ca4724[0].dend[43]'
p731
aS'cADpyr232_L5_TTPC1_0fb1ca4724[0].apic[36]'
p732
aS'cADpyr232_L5_TTPC1_0fb1ca4724[0].apic[35]'
p733
aS'cADpyr232_L5_TTPC1_0fb1ca4724[0].apic[33]'
p734
aS'cADpyr232_L5_TTPC1_0fb1ca4724[0].apic[32]'
p735
aS'cADpyr232_L5_TTPC1_0fb1ca4724[0].apic[29]'
p736
aS'cADpyr232_L5_TTPC1_0fb1ca4724[0].apic[28]'
p737
aS'cADpyr232_L5_TTPC1_0fb1ca4724[0].apic[24]'
p738
aS'cADpyr232_L5_TTPC1_0fb1ca4724[0].apic[21]'
p739
aS'cADpyr232_L5_TTPC1_0fb1ca4724[0].dend[112]'
p740
aS'cADpyr232_L5_TTPC1_0fb1ca4724[0].dend[111]'
p741
aS'cADpyr232_L5_TTPC1_0fb1ca4724[0].apic[38]'
p742
aS'cADpyr232_L5_TTPC1_0fb1ca4724[0].apic[37]'
p743
aS'cADpyr232_L5_TTPC1_0fb1ca4724[0].apic[26]'
p744
aS'cADpyr232_L5_TTPC1_0fb1ca4724[0].apic[25]'
p745
aS'cADpyr232_L5_TTPC1_0fb1ca4724[0].apic[23]'
p746
aS'cADpyr232_L5_TTPC1_0fb1ca4724[0].apic[22]'
p747
aS'cADpyr232_L5_TTPC1_0fb1ca4724[0].apic[40]'
p748
aS'cADpyr232_L5_TTPC1_0fb1ca4724[0].apic[39]'
p749
aS'cADpyr232_L5_TTPC1_0fb1ca4724[0].apic[52]'
p750
aS'cADpyr232_L5_TTPC1_0fb1ca4724[0].apic[41]'
p751
aS'cADpyr232_L5_TTPC1_0fb1ca4724[0].apic[54]'
p752
aS'cADpyr232_L5_TTPC1_0fb1ca4724[0].apic[53]'
p753
aS'cADpyr232_L5_TTPC1_0fb1ca4724[0].apic[47]'
p754
aS'cADpyr232_L5_TTPC1_0fb1ca4724[0].apic[42]'
p755
aS'cADpyr232_L5_TTPC1_0fb1ca4724[0].apic[64]'
p756
aS'cADpyr232_L5_TTPC1_0fb1ca4724[0].apic[55]'
p757
aS'cADpyr232_L5_TTPC1_0fb1ca4724[0].apic[51]'
p758
aS'cADpyr232_L5_TTPC1_0fb1ca4724[0].apic[48]'
p759
aS'cADpyr232_L5_TTPC1_0fb1ca4724[0].apic[46]'
p760
aS'cADpyr232_L5_TTPC1_0fb1ca4724[0].apic[43]'
p761
aS'cADpyr232_L5_TTPC1_0fb1ca4724[0].apic[66]'
p762
aS'cADpyr232_L5_TTPC1_0fb1ca4724[0].apic[65]'
p763
aS'cADpyr232_L5_TTPC1_0fb1ca4724[0].apic[59]'
p764
aS'cADpyr232_L5_TTPC1_0fb1ca4724[0].apic[56]'
p765
aS'cADpyr232_L5_TTPC1_0fb1ca4724[0].apic[50]'
p766
aS'cADpyr232_L5_TTPC1_0fb1ca4724[0].apic[49]'
p767
aS'cADpyr232_L5_TTPC1_0fb1ca4724[0].apic[45]'
p768
aS'cADpyr232_L5_TTPC1_0fb1ca4724[0].apic[44]'
p769
aS'cADpyr232_L5_TTPC1_0fb1ca4724[0].apic[98]'
p770
aS'cADpyr232_L5_TTPC1_0fb1ca4724[0].apic[67]'
p771
aS'cADpyr232_L5_TTPC1_0fb1ca4724[0].apic[61]'
p772
aS'cADpyr232_L5_TTPC1_0fb1ca4724[0].apic[60]'
p773
aS'cADpyr232_L5_TTPC1_0fb1ca4724[0].apic[58]'
p774
aS'cADpyr232_L5_TTPC1_0fb1ca4724[0].apic[57]'
p775
aS'cADpyr232_L5_TTPC1_0fb1ca4724[0].apic[104]'
p776
aS'cADpyr232_L5_TTPC1_0fb1ca4724[0].apic[99]'
p777
aS'cADpyr232_L5_TTPC1_0fb1ca4724[0].apic[69]'
p778
aS'cADpyr232_L5_TTPC1_0fb1ca4724[0].apic[68]'
p779
aS'cADpyr232_L5_TTPC1_0fb1ca4724[0].apic[63]'
p780
aS'cADpyr232_L5_TTPC1_0fb1ca4724[0].apic[62]'
p781
aS'cADpyr232_L5_TTPC1_0fb1ca4724[0].apic[112]'
p782
aS'cADpyr232_L5_TTPC1_0fb1ca4724[0].apic[105]'
p783
aS'cADpyr232_L5_TTPC1_0fb1ca4724[0].apic[103]'
p784
aS'cADpyr232_L5_TTPC1_0fb1ca4724[0].apic[100]'
p785
aS'cADpyr232_L5_TTPC1_0fb1ca4724[0].apic[77]'
p786
aS'cADpyr232_L5_TTPC1_0fb1ca4724[0].apic[70]'
p787
aS'cADpyr232_L5_TTPC1_0fb1ca4724[0].apic[107]'
p788
aS'cADpyr232_L5_TTPC1_0fb1ca4724[0].apic[106]'
p789
aS'cADpyr232_L5_TTPC1_0fb1ca4724[0].apic[102]'
p790
aS'cADpyr232_L5_TTPC1_0fb1ca4724[0].apic[101]'
p791
aS'cADpyr232_L5_TTPC1_0fb1ca4724[0].apic[83]'
p792
aS'cADpyr232_L5_TTPC1_0fb1ca4724[0].apic[78]'
p793
aS'cADpyr232_L5_TTPC1_0fb1ca4724[0].apic[76]'
p794
aS'cADpyr232_L5_TTPC1_0fb1ca4724[0].apic[71]'
p795
aS'cADpyr232_L5_TTPC1_0fb1ca4724[0].apic[111]'
p796
aS'cADpyr232_L5_TTPC1_0fb1ca4724[0].apic[108]'
p797
aS'cADpyr232_L5_TTPC1_0fb1ca4724[0].apic[95]'
p798
aS'cADpyr232_L5_TTPC1_0fb1ca4724[0].apic[84]'
p799
aS'cADpyr232_L5_TTPC1_0fb1ca4724[0].apic[80]'
p800
aS'cADpyr232_L5_TTPC1_0fb1ca4724[0].apic[79]'
p801
aS'cADpyr232_L5_TTPC1_0fb1ca4724[0].apic[75]'
p802
aS'cADpyr232_L5_TTPC1_0fb1ca4724[0].apic[72]'
p803
aS'cADpyr232_L5_TTPC1_0fb1ca4724[0].apic[110]'
p804
aS'cADpyr232_L5_TTPC1_0fb1ca4724[0].apic[109]'
p805
aS'cADpyr232_L5_TTPC1_0fb1ca4724[0].apic[97]'
p806
aS'cADpyr232_L5_TTPC1_0fb1ca4724[0].apic[96]'
p807
aS'cADpyr232_L5_TTPC1_0fb1ca4724[0].apic[92]'
p808
aS'cADpyr232_L5_TTPC1_0fb1ca4724[0].apic[85]'
p809
aS'cADpyr232_L5_TTPC1_0fb1ca4724[0].apic[82]'
p810
aS'cADpyr232_L5_TTPC1_0fb1ca4724[0].apic[81]'
p811
aS'cADpyr232_L5_TTPC1_0fb1ca4724[0].apic[74]'
p812
aS'cADpyr232_L5_TTPC1_0fb1ca4724[0].apic[73]'
p813
aS'cADpyr232_L5_TTPC1_0fb1ca4724[0].apic[94]'
p814
aS'cADpyr232_L5_TTPC1_0fb1ca4724[0].apic[93]'
p815
aS'cADpyr232_L5_TTPC1_0fb1ca4724[0].apic[87]'
p816
aS'cADpyr232_L5_TTPC1_0fb1ca4724[0].apic[86]'
p817
aS'cADpyr232_L5_TTPC1_0fb1ca4724[0].apic[91]'
p818
aS'cADpyr232_L5_TTPC1_0fb1ca4724[0].apic[88]'
p819
aS'cADpyr232_L5_TTPC1_0fb1ca4724[0].apic[90]'
p820
aS'cADpyr232_L5_TTPC1_0fb1ca4724[0].apic[89]'
p821
aaS'MYFTYPE'
p822
aI1
aS'./params/orig.dat'
p823
aS'./Data/'
p824
a(lp825
(lp826
S'cai_CaDynamics_E2'
p827
aa(lp828
S'm_Ca_HVA'
p829
aS'h_Ca_HVA'
p830
aa(lp831
S'm_Ca_LVAst'
p832
aS'h_Ca_LVAst'
p833
aa(lp834
S'm_Ih'
p835
aa(lp836
S'm_Im'
p837
aa(lp838
S'm_K_Pst'
p839
aS'h_K_Pst'
p840
aa(lp841
S'm_K_Tst'
p842
aS'h_K_Tst'
p843
aa(lp844
S'm_Nap_Et2'
p845
aS'h_Nap_Et2'
p846
aa(lp847
S'm_NaTa_t'
p848
aS'h_NaTa_t'
p849
aa(lp850
S'm_NaTs2_t'
p851
aS'h_NaTs2_t'
p852
aa(lp853
a(lp854
S'm_SKv3_1'
p855
aa(lp856
S'z_SK_E2'
p857
aaa(lp858
a.